; Function Attrs: mustprogress nofree norecurse nosync nounwind willreturn memory(argmem: readwrite) uwtable
define void @_ZN7openvdb5v11_02io19DelayedLoadMetadata5clearEv(ptr nocapture noundef nonnull align 8 dereferenceable(56) %this) local_unnamed_addr #10 align 2 personality ptr @__gxx_personality_v0 {
entry:
  %mMask = getelementptr inbounds i8, ptr %this, i64 8
  %0 = load ptr, ptr %mMask, align 8
  %_M_finish.i.i = getelementptr inbounds i8, ptr %this, i64 16
  %1 = load ptr, ptr %_M_finish.i.i, align 8
  %tobool.not.i.i = icmp eq ptr %1, %0
  br i1 %tobool.not.i.i, label %_ZNSt6vectorIaSaIaEE5clearEv.exit, label %invoke.cont.i.i

invoke.cont.i.i:                                  ; preds = %entry
  store ptr %0, ptr %_M_finish.i.i, align 8
  br label %_ZNSt6vectorIaSaIaEE5clearEv.exit

_ZNSt6vectorIaSaIaEE5clearEv.exit:                ; preds = %entry, %invoke.cont.i.i
  %mCompressedSize = getelementptr inbounds i8, ptr %this, i64 32
  %2 = load ptr, ptr %mCompressedSize, align 8
  %_M_finish.i.i1 = getelementptr inbounds i8, ptr %this, i64 40
  %3 = load ptr, ptr %_M_finish.i.i1, align 8
  %tobool.not.i.i2 = icmp eq ptr %3, %2
  br i1 %tobool.not.i.i2, label %_ZNSt6vectorIlSaIlEE5clearEv.exit, label %invoke.cont.i.i3

invoke.cont.i.i3:                                 ; preds = %_ZNSt6vectorIaSaIaEE5clearEv.exit
  store ptr %2, ptr %_M_finish.i.i1, align 8
  br label %_ZNSt6vectorIlSaIlEE5clearEv.exit

_ZNSt6vectorIlSaIlEE5clearEv.exit:                ; preds = %_ZNSt6vectorIaSaIaEE5clearEv.exit, %invoke.cont.i.i3
  ret void
}